target datalayout = "e-m:e-p270:32:32-p271:32:32-p272:64:64-i64:64-i128:128-f80:128-n8:16:32:64-S128"
target triple = "x86_64-pc-linux-gnu"

%struct._zend_executor_globals = type { %struct._zval_struct, %struct._zval_struct, [32 x ptr], ptr, ptr, %struct._zend_array, %struct._zend_array, ptr, i32, i32, ptr, ptr, ptr, ptr, ptr, ptr, i64, ptr, ptr, i32, i32, i64, i32, i32, i32, i8, i8, %struct.zend_atomic_bool_s, %struct.zend_atomic_bool_s, ptr, i64, ptr, ptr, %struct._zend_array, %struct._zend_array, i32, i8, %struct._zval_struct, %struct._zval_struct, %struct._zend_stack, %struct._zend_stack, %struct._zend_stack, ptr, i32, i32, i64, ptr, ptr, ptr, %struct._zend_objects_store, ptr, ptr, ptr, [3 x %struct._zend_op], ptr, i8, i8, i64, i32, i32, ptr, [16 x %struct._HashTableIterator], ptr, %union._zend_function, %struct._zend_op, %struct._zend_array, i64, %struct.zend_get_gc_buffer, ptr, ptr, ptr, i64, i8, i32, ptr, ptr, i64, %struct._zend_call_stack, i64, i64, [6 x ptr] }
%struct.zend_atomic_bool_s = type { i8 }
%struct._zval_struct = type { %union._zend_value, %union.anon, %union.anon.2 }
%union._zend_value = type { i64 }
%union.anon = type { i32 }
%union.anon.2 = type { i32 }
%struct._zend_stack = type { i32, i32, i32, ptr }
%struct._zend_objects_store = type { ptr, i32, i32, i32 }
%struct._HashTableIterator = type { ptr, i32, i32 }
%union._zend_function = type { %struct._zend_op_array }
%struct._zend_op_array = type { i8, [3 x i8], i32, ptr, ptr, ptr, i32, i32, ptr, ptr, ptr, ptr, i32, i32, i32, i32, ptr, ptr, ptr, ptr, ptr, i32, i32, ptr, ptr, ptr, i32, i32, i32, i32, ptr, ptr, [6 x ptr] }
%struct._zend_op = type { ptr, %union._znode_op, %union._znode_op, %union._znode_op, i32, i32, i8, i8, i8, i8 }
%union._znode_op = type { i32 }
%struct._zend_array = type { %struct._zend_refcounted_h, %union.anon.4, i32, %union.anon.6, i32, i32, i32, i32, i64, ptr }
%struct._zend_refcounted_h = type { i32, %union.anon.3 }
%union.anon.3 = type { i32 }
%union.anon.4 = type { i32 }
%union.anon.6 = type { ptr }
%struct.zend_get_gc_buffer = type { ptr, ptr, ptr }
%struct._zend_call_stack = type { ptr, i64 }
%struct._zend_execute_data = type { ptr, ptr, ptr, ptr, %struct._zval_struct, ptr, ptr, ptr, ptr }
%struct._xmlParserCtxt = type { ptr, ptr, ptr, i32, i32, ptr, ptr, i32, i32, ptr, i32, i32, ptr, ptr, i32, i32, ptr, i32, %struct._xmlParserNodeInfoSeq, i32, i32, i32, i32, i32, i32, %struct._xmlValidCtxt, i32, i32, ptr, ptr, i32, i32, ptr, i64, i64, i32, i32, i32, ptr, ptr, ptr, ptr, i32, i32, ptr, i32, ptr, i32, i32, i32, i32, ptr, i32, i32, ptr, i32, i32, ptr, ptr, i32, i32, ptr, ptr, ptr, i32, i32, i32, ptr, ptr, ptr, ptr, ptr, i32, i32, i32, i32, ptr, i32, ptr, %struct._xmlError, i32, i64, i64, ptr, i32, i32, ptr, i32, i64 }
%struct._xmlParserNodeInfoSeq = type { i64, i64, ptr }
%struct._xmlValidCtxt = type { ptr, ptr, ptr, ptr, i32, i32, ptr, i32, ptr, i32, ptr, i32, i32, ptr, ptr, ptr }
%struct._xmlError = type { i32, i32, ptr, i32, ptr, i32, ptr, ptr, ptr, i32, i32, ptr, ptr }
%struct._xmlSAXHandler = type { ptr, ptr, ptr, ptr, ptr, ptr, ptr, ptr, ptr, ptr, ptr, ptr, ptr, ptr, ptr, ptr, ptr, ptr, ptr, ptr, ptr, ptr, ptr, ptr, ptr, ptr, ptr, i32, ptr, ptr, ptr, ptr }

@executor_globals = external global %struct._zend_executor_globals, align 8
@.str.21 = private unnamed_addr constant [32 x i8] c"must not contain any null bytes\00", align 1
@.str.23 = private unnamed_addr constant [18 x i8] c"must not be empty\00", align 1
@.str.38 = private unnamed_addr constant [4 x i8] c"s|l\00", align 1
@.str.39 = private unnamed_addr constant [25 x i8] c"Input string is too long\00", align 1
@.str.40 = private unnamed_addr constant [16 x i8] c"Invalid options\00", align 1

; Function Attrs: nounwind uwtable
define internal void @dom_load_html(ptr noundef %0, ptr noundef %1, i32 noundef %2) #0 {
  %4 = alloca ptr, align 8
  %5 = alloca ptr, align 8
  %6 = alloca i64, align 8
  %7 = alloca ptr, align 8
  %8 = alloca ptr, align 8
  %9 = alloca i32, align 4
  %10 = alloca ptr, align 8
  %11 = alloca i64, align 8
  %12 = alloca i64, align 8
  %13 = alloca ptr, align 8
  %14 = alloca ptr, align 8
  store ptr %0, ptr %7, align 8
  store ptr %1, ptr %8, align 8
  store i32 %2, ptr %9, align 4
  store i64 0, ptr %12, align 8
  %15 = load ptr, ptr %7, align 8
  %16 = getelementptr inbounds %struct._zend_execute_data, ptr %15, i32 0, i32 4
  %17 = getelementptr inbounds %struct._zval_struct, ptr %16, i32 0, i32 2
  %18 = load i32, ptr %17, align 4
  %19 = call i32 (i32, ptr, ...) @zend_parse_parameters(i32 noundef %18, ptr noundef @.str.38, ptr noundef %10, ptr noundef %11, ptr noundef %12)
  %20 = icmp eq i32 %19, -1
  br i1 %20, label %21, label %26

21:                                               ; preds = %3
  br label %22

22:                                               ; preds = %21
  %23 = load ptr, ptr getelementptr inbounds (%struct._zend_executor_globals, ptr @executor_globals, i32 0, i32 50), align 8
  %24 = icmp ne ptr %23, null
  call void @llvm.assume(i1 %24)
  br label %166

25:                                               ; No predecessors!
  br label %26

26:                                               ; preds = %25, %3
  %27 = load i64, ptr %11, align 8
  %28 = icmp ne i64 %27, 0
  br i1 %28, label %34, label %29

29:                                               ; preds = %26
  call void (i32, ptr, ...) @zend_argument_value_error(i32 noundef 1, ptr noundef @.str.23)
  br label %30

30:                                               ; preds = %29
  %31 = load ptr, ptr getelementptr inbounds (%struct._zend_executor_globals, ptr @executor_globals, i32 0, i32 50), align 8
  %32 = icmp ne ptr %31, null
  call void @llvm.assume(i1 %32)
  br label %166

33:                                               ; No predecessors!
  br label %34

34:                                               ; preds = %33, %26
  %35 = load i64, ptr %12, align 8
  %36 = icmp sgt i64 %35, 2147483647
  %37 = xor i1 %36, true
  %38 = xor i1 %37, true
  %39 = zext i1 %38 to i32
  %40 = sext i32 %39 to i64
  %41 = icmp ne i64 %40, 0
  br i1 %41, label %50, label %42

42:                                               ; preds = %34
  %43 = load i64, ptr %12, align 8
  %44 = icmp slt i64 %43, -2147483648
  %45 = xor i1 %44, true
  %46 = xor i1 %45, true
  %47 = zext i1 %46 to i32
  %48 = sext i32 %47 to i64
  %49 = icmp ne i64 %48, 0
  br label %50

50:                                               ; preds = %42, %34
  %51 = phi i1 [ true, %34 ], [ %49, %42 ]
  %52 = xor i1 %51, true
  %53 = xor i1 %52, true
  %54 = zext i1 %53 to i32
  %55 = sext i32 %54 to i64
  %56 = icmp ne i64 %55, 0
  br i1 %56, label %57, label %64

57:                                               ; preds = %50
  call void (ptr, i32, ptr, ...) @php_error_docref(ptr noundef null, i32 noundef 2, ptr noundef @.str.40)
  br label %58

58:                                               ; preds = %57
  br label %59

59:                                               ; preds = %58
  %60 = load ptr, ptr %8, align 8
  %61 = getelementptr inbounds %struct._zval_struct, ptr %60, i32 0, i32 1
  store i32 2, ptr %61, align 8
  br label %62

62:                                               ; preds = %59
  br label %166

63:                                               ; No predecessors!
  br label %64

64:                                               ; preds = %63, %50
  %65 = load i32, ptr %9, align 4
  %66 = icmp eq i32 %65, 1
  br i1 %66, label %67, label %82

67:                                               ; preds = %64
  %68 = load ptr, ptr %10, align 8
  %69 = load i64, ptr %11, align 8
  store ptr %68, ptr %5, align 8
  store i64 %69, ptr %6, align 8
  %70 = load i64, ptr %6, align 8
  %71 = load ptr, ptr %5, align 8
  %72 = call i64 @strlen(ptr noundef %71) #8
  %73 = icmp ne i64 %70, %72
  br i1 %73, label %74, label %79

74:                                               ; preds = %67
  call void (i32, ptr, ...) @zend_argument_value_error(i32 noundef 1, ptr noundef @.str.21)
  br label %75

75:                                               ; preds = %74
  %76 = load ptr, ptr getelementptr inbounds (%struct._zend_executor_globals, ptr @executor_globals, i32 0, i32 50), align 8
  %77 = icmp ne ptr %76, null
  call void @llvm.assume(i1 %77)
  br label %166

78:                                               ; No predecessors!
  br label %79

79:                                               ; preds = %78, %67
  %80 = load ptr, ptr %10, align 8
  %81 = call ptr @htmlCreateFileParserCtxt(ptr noundef %80, ptr noundef null)
  store ptr %81, ptr %13, align 8
  br label %102

82:                                               ; preds = %64
  %83 = load i64, ptr %11, align 8
  %84 = icmp ugt i64 %83, 2147483647
  %85 = xor i1 %84, true
  %86 = xor i1 %85, true
  %87 = zext i1 %86 to i32
  %88 = sext i32 %87 to i64
  %89 = icmp ne i64 %88, 0
  br i1 %89, label %90, label %97

90:                                               ; preds = %82
  call void (ptr, i32, ptr, ...) @php_error_docref(ptr noundef null, i32 noundef 2, ptr noundef @.str.39)
  br label %91

91:                                               ; preds = %90
  br label %92

92:                                               ; preds = %91
  %93 = load ptr, ptr %8, align 8
  %94 = getelementptr inbounds %struct._zval_struct, ptr %93, i32 0, i32 1
  store i32 2, ptr %94, align 8
  br label %95

95:                                               ; preds = %92
  br label %166

96:                                               ; No predecessors!
  br label %97

97:                                               ; preds = %96, %82
  %98 = load ptr, ptr %10, align 8
  %99 = load i64, ptr %11, align 8
  %100 = trunc i64 %99 to i32
  %101 = call ptr @htmlCreateMemoryParserCtxt(ptr noundef %98, i32 noundef %100)
  store ptr %101, ptr %13, align 8
  br label %102

102:                                              ; preds = %97, %79
  %103 = load ptr, ptr %13, align 8
  %104 = icmp ne ptr %103, null
  br i1 %104, label %112, label %105

105:                                              ; preds = %102
  br label %106

106:                                              ; preds = %105
  br label %107

107:                                              ; preds = %106
  %108 = load ptr, ptr %8, align 8
  %109 = getelementptr inbounds %struct._zval_struct, ptr %108, i32 0, i32 1
  store i32 2, ptr %109, align 8
  br label %110

110:                                              ; preds = %107
  br label %166

111:                                              ; No predecessors!
  br label %112

112:                                              ; preds = %111, %102
  %113 = load ptr, ptr %13, align 8
  %114 = getelementptr inbounds %struct._xmlParserCtxt, ptr %113, i32 0, i32 25
  %115 = getelementptr inbounds %struct._xmlValidCtxt, ptr %114, i32 0, i32 1
  store ptr @php_libxml_ctx_error, ptr %115, align 8
  %116 = load ptr, ptr %13, align 8
  %117 = getelementptr inbounds %struct._xmlParserCtxt, ptr %116, i32 0, i32 25
  %118 = getelementptr inbounds %struct._xmlValidCtxt, ptr %117, i32 0, i32 2
  store ptr @php_libxml_ctx_warning, ptr %118, align 8
  %119 = load ptr, ptr %13, align 8
  %120 = getelementptr inbounds %struct._xmlParserCtxt, ptr %119, i32 0, i32 0
  %121 = load ptr, ptr %120, align 8
  %122 = icmp ne ptr %121, null
  br i1 %122, label %123, label %132

123:                                              ; preds = %112
  %124 = load ptr, ptr %13, align 8
  %125 = getelementptr inbounds %struct._xmlParserCtxt, ptr %124, i32 0, i32 0
  %126 = load ptr, ptr %125, align 8
  %127 = getelementptr inbounds %struct._xmlSAXHandler, ptr %126, i32 0, i32 22
  store ptr @php_libxml_ctx_error, ptr %127, align 8
  %128 = load ptr, ptr %13, align 8
  %129 = getelementptr inbounds %struct._xmlParserCtxt, ptr %128, i32 0, i32 0
  %130 = load ptr, ptr %129, align 8
  %131 = getelementptr inbounds %struct._xmlSAXHandler, ptr %130, i32 0, i32 21
  store ptr @php_libxml_ctx_warning, ptr %131, align 8
  br label %132

132:                                              ; preds = %123, %112
  %133 = load ptr, ptr %13, align 8
  store ptr %133, ptr %4, align 8
  %134 = load ptr, ptr %4, align 8
  %135 = getelementptr inbounds %struct._xmlParserCtxt, ptr %134, i32 0, i32 52
  store i32 0, ptr %135, align 8
  %136 = load ptr, ptr %4, align 8
  %137 = getelementptr inbounds %struct._xmlParserCtxt, ptr %136, i32 0, i32 24
  store i32 0, ptr %137, align 4
  %138 = load ptr, ptr %4, align 8
  %139 = getelementptr inbounds %struct._xmlParserCtxt, ptr %138, i32 0, i32 50
  store i32 0, ptr %139, align 4
  %140 = load ptr, ptr %4, align 8
  %141 = getelementptr inbounds %struct._xmlParserCtxt, ptr %140, i32 0, i32 4
  store i32 0, ptr %141, align 4
  %142 = load ptr, ptr %4, align 8
  %143 = getelementptr inbounds %struct._xmlParserCtxt, ptr %142, i32 0, i32 53
  store i32 0, ptr %143, align 4
  %144 = load ptr, ptr %4, align 8
  %145 = getelementptr inbounds %struct._xmlParserCtxt, ptr %144, i32 0, i32 35
  store i32 1, ptr %145, align 8
  %146 = load ptr, ptr %4, align 8
  %147 = getelementptr inbounds %struct._xmlParserCtxt, ptr %146, i32 0, i32 73
  store i32 0, ptr %147, align 4
  %148 = load i64, ptr %12, align 8
  %149 = icmp ne i64 %148, 0
  br i1 %149, label %150, label %155

150:                                              ; preds = %132
  %151 = load ptr, ptr %13, align 8
  %152 = load i64, ptr %12, align 8
  %153 = trunc i64 %152 to i32
  %154 = call i32 @htmlCtxtUseOptions(ptr noundef %151, i32 noundef %153)
  br label %155

155:                                              ; preds = %150, %132
  %156 = load ptr, ptr %13, align 8
  %157 = call i32 @htmlParseDocument(ptr noundef %156)
  %158 = load ptr, ptr %13, align 8
  %159 = getelementptr inbounds %struct._xmlParserCtxt, ptr %158, i32 0, i32 2
  %160 = load ptr, ptr %159, align 8
  store ptr %160, ptr %14, align 8
  %161 = load ptr, ptr %13, align 8
  call void @htmlFreeParserCtxt(ptr noundef %161)
  %162 = load ptr, ptr %7, align 8
  %163 = getelementptr inbounds %struct._zend_execute_data, ptr %162, i32 0, i32 4
  %164 = load ptr, ptr %8, align 8
  %165 = load ptr, ptr %14, align 8
  call void @php_dom_finish_loading_document(ptr noundef %163, ptr noundef %164, ptr noundef %165)
  br label %166

166:                                              ; preds = %155, %110, %95, %75, %62, %30, %22
  ret void
}