; Function Attrs: nounwind uwtable
define internal fastcc void @dom_load_html(ptr nocapture noundef readonly %0, ptr nocapture noundef writeonly %1, i32 noundef %2) unnamed_addr #0 {
  %4 = alloca ptr, align 8
  %5 = alloca i64, align 8
  %6 = alloca i64, align 8
  store i64 0, ptr %6, align 8
  %7 = getelementptr inbounds i8, ptr %0, i64 32
  %8 = getelementptr inbounds i8, ptr %0, i64 44
  %9 = load i32, ptr %8, align 4
  %10 = call i32 (i32, ptr, ...) @zend_parse_parameters(i32 noundef %9, ptr noundef nonnull @.str.38, ptr noundef nonnull %4, ptr noundef nonnull %5, ptr noundef nonnull %6) #10
  %11 = icmp eq i32 %10, -1
  br i1 %11, label %12, label %15

12:                                               ; preds = %3
  %13 = load ptr, ptr getelementptr inbounds (%struct._zend_executor_globals, ptr @executor_globals, i64 0, i32 50), align 8
  %14 = icmp ne ptr %13, null
  call void @llvm.assume(i1 %14)
  br label %70

15:                                               ; preds = %3
  %16 = load i64, ptr %5, align 8
  %.not = icmp eq i64 %16, 0
  br i1 %.not, label %17, label %20

17:                                               ; preds = %15
  call void (i32, ptr, ...) @zend_argument_value_error(i32 noundef 1, ptr noundef nonnull @.str.23) #10
  %18 = load ptr, ptr getelementptr inbounds (%struct._zend_executor_globals, ptr @executor_globals, i64 0, i32 50), align 8
  %19 = icmp ne ptr %18, null
  call void @llvm.assume(i1 %19)
  br label %70

20:                                               ; preds = %15
  %21 = load i64, ptr %6, align 8
  %22 = add i64 %21, -2147483648
  %spec.select = icmp ult i64 %22, -4294967296
  br i1 %spec.select, label %23, label %25

23:                                               ; preds = %20
  call void (ptr, i32, ptr, ...) @php_error_docref(ptr noundef null, i32 noundef 2, ptr noundef nonnull @.str.40) #10
  %24 = getelementptr inbounds i8, ptr %1, i64 8
  store i32 2, ptr %24, align 8
  br label %70

25:                                               ; preds = %20
  %26 = icmp eq i32 %2, 1
  br i1 %26, label %27, label %35

27:                                               ; preds = %25
  %28 = load ptr, ptr %4, align 8
  %29 = call i64 @strlen(ptr noundef nonnull dereferenceable(1) %28) #11
  %.not31 = icmp eq i64 %16, %29
  br i1 %.not31, label %33, label %30

30:                                               ; preds = %27
  call void (i32, ptr, ...) @zend_argument_value_error(i32 noundef 1, ptr noundef nonnull @.str.21) #10
  %31 = load ptr, ptr getelementptr inbounds (%struct._zend_executor_globals, ptr @executor_globals, i64 0, i32 50), align 8
  %32 = icmp ne ptr %31, null
  call void @llvm.assume(i1 %32)
  br label %70

33:                                               ; preds = %27
  %34 = call ptr @htmlCreateFileParserCtxt(ptr noundef %28, ptr noundef null) #10
  br label %43

35:                                               ; preds = %25
  %36 = icmp ugt i64 %16, 2147483647
  br i1 %36, label %37, label %39

37:                                               ; preds = %35
  call void (ptr, i32, ptr, ...) @php_error_docref(ptr noundef null, i32 noundef 2, ptr noundef nonnull @.str.39) #10
  %38 = getelementptr inbounds i8, ptr %1, i64 8
  store i32 2, ptr %38, align 8
  br label %70

39:                                               ; preds = %35
  %40 = load ptr, ptr %4, align 8
  %41 = trunc i64 %16 to i32
  %42 = call ptr @htmlCreateMemoryParserCtxt(ptr noundef %40, i32 noundef %41) #10
  br label %43

43:                                               ; preds = %39, %33
  %.0 = phi ptr [ %34, %33 ], [ %42, %39 ]
  %.not32 = icmp eq ptr %.0, null
  br i1 %.not32, label %44, label %46

44:                                               ; preds = %43
  %45 = getelementptr inbounds i8, ptr %1, i64 8
  store i32 2, ptr %45, align 8
  br label %70

46:                                               ; preds = %43
  %47 = getelementptr inbounds i8, ptr %.0, i64 168
  store ptr @php_libxml_ctx_error, ptr %47, align 8
  %48 = getelementptr inbounds i8, ptr %.0, i64 176
  store ptr @php_libxml_ctx_warning, ptr %48, align 8
  %49 = load ptr, ptr %.0, align 8
  %.not33 = icmp eq ptr %49, null
  br i1 %.not33, label %54, label %50

50:                                               ; preds = %46
  %51 = getelementptr inbounds i8, ptr %49, i64 176
  store ptr @php_libxml_ctx_error, ptr %51, align 8
  %52 = load ptr, ptr %.0, align 8
  %53 = getelementptr inbounds i8, ptr %52, i64 168
  store ptr @php_libxml_ctx_warning, ptr %53, align 8
  br label %54

54:                                               ; preds = %50, %46
  %55 = getelementptr inbounds i8, ptr %.0, i64 432
  store i32 0, ptr %55, align 8
  %56 = getelementptr inbounds i8, ptr %.0, i64 156
  store i32 0, ptr %56, align 4
  %57 = getelementptr inbounds i8, ptr %.0, i64 420
  store i32 0, ptr %57, align 4
  %58 = getelementptr inbounds i8, ptr %.0, i64 28
  store i32 0, ptr %58, align 4
  %59 = getelementptr inbounds i8, ptr %.0, i64 436
  store i32 0, ptr %59, align 4
  %60 = getelementptr inbounds i8, ptr %.0, i64 328
  store i32 1, ptr %60, align 8
  %61 = getelementptr inbounds i8, ptr %.0, i64 564
  store i32 0, ptr %61, align 4
  %62 = load i64, ptr %6, align 8
  %.not34 = icmp eq i64 %62, 0
  br i1 %.not34, label %66, label %63

63:                                               ; preds = %54
  %64 = trunc i64 %62 to i32
  %65 = call i32 @htmlCtxtUseOptions(ptr noundef nonnull %.0, i32 noundef %64) #10
  br label %66

66:                                               ; preds = %63, %54
  %67 = call i32 @htmlParseDocument(ptr noundef nonnull %.0) #10
  %68 = getelementptr inbounds i8, ptr %.0, i64 16
  %69 = load ptr, ptr %68, align 8
  call void @htmlFreeParserCtxt(ptr noundef nonnull %.0) #10
  call fastcc void @php_dom_finish_loading_document(ptr noundef nonnull %7, ptr noundef %1, ptr noundef %69)
  br label %70

70:                                               ; preds = %66, %44, %37, %30, %23, %17, %12
  ret void
}